; Function Attrs: nounwind uwtable
define void @Acb_IntallLibrary(i32 noundef %0) local_unnamed_addr #0 {
  %2 = tail call noalias dereferenceable_or_null(16) ptr @malloc(i64 noundef 16) #29
  %3 = getelementptr inbounds nuw i8, ptr %2, i64 4
  store i32 0, ptr %3, align 4
  store i32 1000, ptr %2, align 8
  %4 = tail call noalias dereferenceable_or_null(1000) ptr @malloc(i64 noundef 1000) #29
  %5 = getelementptr inbounds nuw i8, ptr %2, i64 8
  store ptr %4, ptr %5, align 8
  %.not = icmp eq i32 %0, 0
  %6 = select i1 %.not, ptr @pLibStr, ptr @pLibStr2
  %7 = load ptr, ptr %6, align 16
  %.not1213 = icmp eq ptr %7, null
  br i1 %.not1213, label %.Vec_StrGrow.exit10_crit_edge.i, label %.lr.ph

.lr.ph:                                           ; preds = %1, %.lr.ph
  %indvars.iv = phi i64 [ %indvars.iv.next, %.lr.ph ], [ 0, %1 ]
  %8 = phi ptr [ %10, %.lr.ph ], [ %7, %1 ]
  tail call fastcc void @Vec_StrAppend(ptr noundef nonnull %2, ptr noundef nonnull %8)
  %indvars.iv.next = add nuw nsw i64 %indvars.iv, 1
  %9 = getelementptr inbounds nuw ptr, ptr %6, i64 %indvars.iv.next
  %10 = load ptr, ptr %9, align 8
  %.not12 = icmp eq ptr %10, null
  br i1 %.not12, label %._crit_edge, label %.lr.ph, !llvm.loop !4

._crit_edge:                                      ; preds = %.lr.ph
  %.pre = load i32, ptr %3, align 4
  %.pre16 = load i32, ptr %2, align 8
  %11 = icmp eq i32 %.pre, %.pre16
  br i1 %11, label %13, label %.Vec_StrGrow.exit10_crit_edge.i

.Vec_StrGrow.exit10_crit_edge.i:                  ; preds = %1, %._crit_edge
  %12 = phi i32 [ %.pre, %._crit_edge ], [ 0, %1 ]
  %.pre.i = load ptr, ptr %5, align 8
  br label %Vec_StrPush.exit

13:                                               ; preds = %._crit_edge
  %14 = icmp slt i32 %.pre16, 16
  br i1 %14, label %15, label %22

15:                                               ; preds = %13
  %16 = load ptr, ptr %5, align 8
  %.not9.i.i = icmp eq ptr %16, null
  br i1 %.not9.i.i, label %19, label %17

17:                                               ; preds = %15
  %18 = tail call dereferenceable_or_null(16) ptr @realloc(ptr noundef nonnull %16, i64 noundef 16) #30
  br label %Vec_StrGrow.exit.i

19:                                               ; preds = %15
  %20 = tail call noalias dereferenceable_or_null(16) ptr @malloc(i64 noundef 16) #29
  br label %Vec_StrGrow.exit.i

Vec_StrGrow.exit.i:                               ; preds = %19, %17
  %21 = phi ptr [ %18, %17 ], [ %20, %19 ]
  store ptr %21, ptr %5, align 8
  store i32 16, ptr %2, align 8
  br label %Vec_StrPush.exit

22:                                               ; preds = %13
  %23 = shl nuw nsw i32 %.pre16, 1
  %24 = load ptr, ptr %5, align 8
  %.not9.i9.i = icmp eq ptr %24, null
  %25 = zext nneg i32 %23 to i64
  br i1 %.not9.i9.i, label %28, label %26

26:                                               ; preds = %22
  %27 = tail call ptr @realloc(ptr noundef nonnull %24, i64 noundef %25) #30
  br label %30

28:                                               ; preds = %22
  %29 = tail call noalias ptr @malloc(i64 noundef %25) #29
  br label %30

30:                                               ; preds = %28, %26
  %31 = phi ptr [ %27, %26 ], [ %29, %28 ]
  store ptr %31, ptr %5, align 8
  store i32 %23, ptr %2, align 8
  br label %Vec_StrPush.exit

Vec_StrPush.exit:                                 ; preds = %.Vec_StrGrow.exit10_crit_edge.i, %Vec_StrGrow.exit.i, %30
  %32 = phi i32 [ %12, %.Vec_StrGrow.exit10_crit_edge.i ], [ %.pre, %30 ], [ %.pre, %Vec_StrGrow.exit.i ]
  %33 = phi ptr [ %.pre.i, %.Vec_StrGrow.exit10_crit_edge.i ], [ %31, %30 ], [ %21, %Vec_StrGrow.exit.i ]
  %34 = add nsw i32 %32, 1
  store i32 %34, ptr %3, align 4
  %35 = sext i32 %32 to i64
  %36 = getelementptr inbounds i8, ptr %33, i64 %35
  store i8 0, ptr %36, align 1
  %.val = load ptr, ptr %5, align 8
  %37 = tail call ptr @Mio_LibraryReadBuffer(ptr noundef %.val, i32 noundef 0, ptr noundef null, i32 noundef 0) #31
  %38 = tail call noalias dereferenceable_or_null(15) ptr @malloc(i64 noundef 15) #29
  tail call void @llvm.memcpy.p0.p0.i64(ptr noundef nonnull align 1 dereferenceable(15) %38, ptr noundef nonnull align 1 dereferenceable(15) @.str.2, i64 15, i1 false) #31
  tail call void @Mio_LibrarySetName(ptr noundef %37, ptr noundef nonnull %38) #31
  tail call void @Mio_UpdateGenlib(ptr noundef %37) #31
  %.not.i = icmp eq ptr %.val, null
  br i1 %.not.i, label %Vec_StrFree.exit, label %39

39:                                               ; preds = %Vec_StrPush.exit
  tail call void @free(ptr noundef nonnull %.val) #31
  br label %Vec_StrFree.exit

Vec_StrFree.exit:                                 ; preds = %Vec_StrPush.exit, %39
  tail call void @free(ptr noundef nonnull %2) #31
  ret void
}